target datalayout = "e-m:e-p270:32:32-p271:32:32-p272:64:64-i64:64-i128:128-f80:128-n8:16:32:64-S128"
target triple = "x86_64-pc-linux-gnu"

; Function Attrs: nounwind uwtable
define hidden float @SDL_PQtoNits(float noundef %0) #0 {
  %2 = alloca float, align 4
  %3 = alloca float, align 4
  %4 = alloca float, align 4
  %5 = alloca float, align 4
  %6 = alloca float, align 4
  %7 = alloca float, align 4
  %8 = alloca float, align 4
  %9 = alloca float, align 4
  store float %0, ptr %2, align 4
  call void @llvm.lifetime.start.p0(i64 4, ptr %3) #7
  store float 0x3FEAC00000000000, ptr %3, align 4
  call void @llvm.lifetime.start.p0(i64 4, ptr %4) #7
  store float 0x4032DA0000000000, ptr %4, align 4
  call void @llvm.lifetime.start.p0(i64 4, ptr %5) #7
  store float 1.868750e+01, ptr %5, align 4
  call void @llvm.lifetime.start.p0(i64 4, ptr %6) #7
  store float 0x40191C0D60000000, ptr %6, align 4
  call void @llvm.lifetime.start.p0(i64 4, ptr %7) #7
  store float 0x3F89F9B580000000, ptr %7, align 4
  call void @llvm.lifetime.start.p0(i64 4, ptr %8) #7
  %10 = load float, ptr %2, align 4
  %11 = call float @SDL_powf_REAL(float noundef %10, float noundef 0x3F89F9B580000000)
  %12 = fsub float %11, 0x3FEAC00000000000
  %13 = fcmp ogt float %12, 0.000000e+00
  br i1 %13, label %14, label %18

14:                                               ; preds = %1
  %15 = load float, ptr %2, align 4
  %16 = call float @SDL_powf_REAL(float noundef %15, float noundef 0x3F89F9B580000000)
  %17 = fsub float %16, 0x3FEAC00000000000
  br label %19

18:                                               ; preds = %1
  br label %19

19:                                               ; preds = %18, %14
  %20 = phi float [ %17, %14 ], [ 0.000000e+00, %18 ]
  store float %20, ptr %8, align 4
  call void @llvm.lifetime.start.p0(i64 4, ptr %9) #7
  %21 = load float, ptr %2, align 4
  %22 = call float @SDL_powf_REAL(float noundef %21, float noundef 0x3F89F9B580000000)
  %23 = call float @llvm.fmuladd.f32(float -1.868750e+01, float %22, float 0x4032DA0000000000)
  store float %23, ptr %9, align 4
  %24 = load float, ptr %8, align 4
  %25 = load float, ptr %9, align 4
  %26 = fdiv float %24, %25
  %27 = call float @SDL_powf_REAL(float noundef %26, float noundef 0x40191C0D60000000)
  %28 = fmul float 1.000000e+04, %27
  call void @llvm.lifetime.end.p0(i64 4, ptr %9) #7
  call void @llvm.lifetime.end.p0(i64 4, ptr %8) #7
  call void @llvm.lifetime.end.p0(i64 4, ptr %7) #7
  call void @llvm.lifetime.end.p0(i64 4, ptr %6) #7
  call void @llvm.lifetime.end.p0(i64 4, ptr %5) #7
  call void @llvm.lifetime.end.p0(i64 4, ptr %4) #7
  call void @llvm.lifetime.end.p0(i64 4, ptr %3) #7
  ret float %28
}