; Function Attrs: nounwind uwtable
define hidden float @SDL_PQtoNits(float noundef %0) local_unnamed_addr #1 {
  %2 = tail call float @SDL_powf_REAL(float noundef %0, float noundef 0x3F89F9B580000000) #15
  %3 = fadd float %2, 0xBFEAC00000000000
  %4 = fcmp ogt float %3, 0.000000e+00
  br i1 %4, label %5, label %8

5:                                                ; preds = %1
  %6 = tail call float @SDL_powf_REAL(float noundef %0, float noundef 0x3F89F9B580000000) #15
  %7 = fadd float %6, 0xBFEAC00000000000
  br label %8

8:                                                ; preds = %1, %5
  %9 = phi float [ %7, %5 ], [ 0.000000e+00, %1 ]
  %10 = tail call float @SDL_powf_REAL(float noundef %0, float noundef 0x3F89F9B580000000) #15
  %11 = tail call float @llvm.fmuladd.f32(float %10, float -1.868750e+01, float 0x4032DA0000000000)
  %12 = fdiv float %9, %11
  %13 = tail call float @SDL_powf_REAL(float noundef %12, float noundef 0x40191C0D60000000) #15
  %14 = fmul float %13, 1.000000e+04
  ret float %14
}